; Function Attrs: mustprogress uwtable
define dso_local void @_ZN7AstNode7addOp4pEPS_(ptr noundef nonnull align 8 dereferenceable(152) %0, ptr noundef %1) local_unnamed_addr #4 align 2 {
  %.not = icmp eq ptr %1, null
  br i1 %.not, label %3, label %7

3:                                                ; preds = %2
  %4 = tail call noundef nonnull align 8 dereferenceable(112) ptr @_ZN7V3Error19v3errorPrepFileLineB5cxx11E11V3ErrorCodePKcib(i8 4, ptr noundef nonnull @.str.557, i32 noundef 499, i1 noundef zeroext false)
  %5 = tail call noundef nonnull align 8 dereferenceable(112) ptr @_ZN7V3Error10v3errorStrB5cxx11Ev()
  %6 = tail call noundef nonnull align 8 dereferenceable(8) ptr @_ZStlsISt11char_traitsIcEERSt13basic_ostreamIcT_ES5_PKc(ptr noundef nonnull align 8 dereferenceable(8) %5, ptr noundef nonnull @.str.603)
  tail call void @_ZNK7AstNode15v3errorEndFatalERNSt7__cxx1119basic_ostringstreamIcSt11char_traitsIcESaIcEEE(ptr noundef nonnull align 8 dereferenceable(152) %0, ptr noundef nonnull align 8 dereferenceable(112) %6) #25
  unreachable

7:                                                ; preds = %2
  %8 = getelementptr inbounds i8, ptr %0, i64 48
  %9 = load ptr, ptr %8, align 8
  %.not4 = icmp eq ptr %9, null
  br i1 %.not4, label %_ZN7AstNode4op4pEPS_.exit, label %11

_ZN7AstNode4op4pEPS_.exit:                        ; preds = %7
  store ptr %1, ptr %8, align 8
  %10 = getelementptr inbounds i8, ptr %1, i64 16
  store ptr %0, ptr %10, align 8
  br label %29

11:                                               ; preds = %7
  %12 = getelementptr inbounds i8, ptr %9, i64 8
  %13 = load ptr, ptr %12, align 8
  %.not30.i.i = icmp eq ptr %13, null
  br i1 %.not30.i.i, label %_ZN7AstNode7addNextEPS_.exit, label %14

14:                                               ; preds = %11
  %15 = getelementptr inbounds i8, ptr %9, i64 80
  %16 = load ptr, ptr %15, align 8
  %.not31.i.i = icmp eq ptr %16, null
  br i1 %.not31.i.i, label %.preheader.i.i, label %_ZN7AstNode7addNextEPS_.exit

.preheader.i.i:                                   ; preds = %14, %.preheader.i.i
  %.026.i.i = phi ptr [ %18, %.preheader.i.i ], [ %9, %14 ]
  %17 = getelementptr inbounds i8, ptr %.026.i.i, i64 8
  %18 = load ptr, ptr %17, align 8
  %.not32.i.i = icmp eq ptr %18, null
  br i1 %.not32.i.i, label %_ZN7AstNode7addNextEPS_.exit, label %.preheader.i.i, !llvm.loop !25

_ZN7AstNode7addNextEPS_.exit:                     ; preds = %.preheader.i.i, %11, %14
  %.1.i.i = phi ptr [ %9, %11 ], [ %16, %14 ], [ %.026.i.i, %.preheader.i.i ]
  %19 = getelementptr inbounds i8, ptr %.1.i.i, i64 8
  store ptr %1, ptr %19, align 8
  %20 = getelementptr inbounds i8, ptr %1, i64 16
  store ptr %.1.i.i, ptr %20, align 8
  %21 = getelementptr inbounds i8, ptr %1, i64 80
  %22 = load ptr, ptr %21, align 8
  %23 = getelementptr inbounds i8, ptr %.1.i.i, i64 80
  %24 = load ptr, ptr %23, align 8
  store ptr null, ptr %23, align 8
  store ptr null, ptr %21, align 8
  %25 = getelementptr inbounds i8, ptr %22, i64 80
  store ptr %24, ptr %25, align 8
  %26 = getelementptr inbounds i8, ptr %24, i64 80
  store ptr %22, ptr %26, align 8
  %27 = load i64, ptr @_ZN7AstNode12s_editCntGblE, align 8
  %28 = add i64 %27, 1
  store i64 %28, ptr @_ZN7AstNode12s_editCntGblE, align 8
  br label %29

29:                                               ; preds = %_ZN7AstNode7addNextEPS_.exit, %_ZN7AstNode4op4pEPS_.exit
  ret void
}